; Function Attrs: mustprogress uwtable
define hidden void @_ZNK4cvc58internal13FloatingPoint3fmaERKNS0_12RoundingModeERKS1_S6_(ptr dead_on_unwind noalias writable writeonly sret(%"class.cvc5::internal::FloatingPoint") align 8 captures(none) %0, ptr noundef nonnull readonly align 8 captures(none) dereferenceable(8) %1, ptr noundef nonnull align 4 dereferenceable(4) %2, ptr noundef nonnull readonly align 8 captures(none) dereferenceable(8) %3, ptr noundef nonnull readonly align 8 captures(none) dereferenceable(8) %4) local_unnamed_addr #3 align 2 personality ptr @__gxx_personality_v0 {
  %6 = tail call noalias noundef nonnull dereferenceable(64) ptr @_Znwm(i64 noundef 64) #17
  %7 = load ptr, ptr %1, align 8, !tbaa !3
  %8 = load ptr, ptr %3, align 8, !tbaa !3
  %9 = load ptr, ptr %4, align 8, !tbaa !3
  invoke void @_ZNK4cvc58internal20FloatingPointLiteral3fmaERKNS0_12RoundingModeERKS1_S6_(ptr dead_on_unwind nonnull writable sret(%"class.cvc5::internal::FloatingPointLiteral") align 8 %6, ptr noundef nonnull align 8 dereferenceable(64) %7, ptr noundef nonnull align 4 dereferenceable(4) %2, ptr noundef nonnull align 8 dereferenceable(64) %8, ptr noundef nonnull align 8 dereferenceable(64) %9)
          to label %10 unwind label %11

10:                                               ; preds = %5
  store ptr %6, ptr %0, align 8, !tbaa !3
  ret void

11:                                               ; preds = %5
  %12 = landingpad { ptr, i32 }
          cleanup
  tail call void @_ZdlPvm(ptr noundef nonnull %6, i64 noundef 64) #18
  resume { ptr, i32 } %12
}